; Function Attrs: mustprogress nounwind uwtable
define internal void @_ZN12_GLOBAL__N_112ILPScheduler10initializeEPN4llvm13ScheduleDAGMIE(ptr noundef nonnull align 8 captures(none) dereferenceable(64) initializes((8, 32)) %0, ptr noundef nonnull %1) unnamed_addr #0 align 2 {
  %3 = getelementptr inbounds nuw i8, ptr %0, i64 8
  store ptr %1, ptr %3, align 8
  tail call void @_ZN4llvm17ScheduleDAGMILive16computeDFSResultEv(ptr noundef nonnull align 8 dereferenceable(5184) %1)
  %4 = load ptr, ptr %3, align 8
  %5 = getelementptr inbounds nuw i8, ptr %4, i64 2712
  %6 = load ptr, ptr %5, align 8
  %7 = getelementptr inbounds nuw i8, ptr %0, i64 16
  store ptr %6, ptr %7, align 8
  %8 = getelementptr inbounds nuw i8, ptr %4, i64 2720
  %9 = getelementptr inbounds nuw i8, ptr %0, i64 24
  store ptr %8, ptr %9, align 8
  %10 = getelementptr inbounds nuw i8, ptr %0, i64 40
  %11 = load ptr, ptr %10, align 8
  %12 = getelementptr inbounds nuw i8, ptr %0, i64 48
  %13 = load ptr, ptr %12, align 8
  %.not.i.i = icmp eq ptr %13, %11
  br i1 %.not.i.i, label %_ZNSt6vectorIPN4llvm5SUnitESaIS2_EE5clearEv.exit, label %14

14:                                               ; preds = %2
  store ptr %11, ptr %12, align 8
  br label %_ZNSt6vectorIPN4llvm5SUnitESaIS2_EE5clearEv.exit

_ZNSt6vectorIPN4llvm5SUnitESaIS2_EE5clearEv.exit: ; preds = %2, %14
  ret void
}